target datalayout = "e-m:e-p270:32:32-p271:32:32-p272:64:64-i64:64-i128:128-f80:128-n8:16:32:64-S128"
target triple = "x86_64-pc-linux-gnu"

%"class.llvm::SmallVectorBase" = type { ptr, i32, i32 }
%"class.llvm::SDValue" = type <{ ptr, i32, [4 x i8] }>
%struct.BranchFunnelTarget = type { i64, %"class.llvm::SDValue" }

; Function Attrs: mustprogress nounwind uwtable
define internal noundef ptr @_ZNK4llvm25SmallVectorTemplateCommonIZNS_19SelectionDAGBuilder18visitIntrinsicCallERKNS_8CallInstEjE18BranchFunnelTargetvE10getFirstElEv(ptr noundef nonnull align 8 dereferenceable(16) %0) #1 align 2 {
  %2 = alloca ptr, align 8
  store ptr %0, ptr %2, align 8
  %3 = load ptr, ptr %2, align 8
  %4 = getelementptr inbounds i8, ptr %3, i64 16
  ret ptr %4
}

; Function Attrs: mustprogress nounwind uwtable
define internal noundef zeroext i1 @_ZNK4llvm25SmallVectorTemplateCommonIZNS_19SelectionDAGBuilder18visitIntrinsicCallERKNS_8CallInstEjE18BranchFunnelTargetvE7isSmallEv(ptr noundef nonnull align 8 dereferenceable(16) %0) #1 align 2 {
  %2 = alloca ptr, align 8
  store ptr %0, ptr %2, align 8
  %3 = load ptr, ptr %2, align 8
  %4 = getelementptr inbounds nuw %"class.llvm::SmallVectorBase", ptr %3, i32 0, i32 0
  %5 = load ptr, ptr %4, align 8
  %6 = call noundef ptr @_ZNK4llvm25SmallVectorTemplateCommonIZNS_19SelectionDAGBuilder18visitIntrinsicCallERKNS_8CallInstEjE18BranchFunnelTargetvE10getFirstElEv(ptr noundef nonnull align 8 dereferenceable(16) %3)
  %7 = icmp eq ptr %5, %6
  ret i1 %7
}

; Function Attrs: mustprogress nounwind uwtable
define internal void @_ZN4llvm15SmallVectorImplIZNS_19SelectionDAGBuilder18visitIntrinsicCallERKNS_8CallInstEjE18BranchFunnelTargetED2Ev(ptr noundef nonnull align 8 dereferenceable(16) %0) unnamed_addr #1 align 2 {
  %2 = alloca ptr, align 8
  store ptr %0, ptr %2, align 8
  %3 = load ptr, ptr %2, align 8
  %4 = call noundef zeroext i1 @_ZNK4llvm25SmallVectorTemplateCommonIZNS_19SelectionDAGBuilder18visitIntrinsicCallERKNS_8CallInstEjE18BranchFunnelTargetvE7isSmallEv(ptr noundef nonnull align 8 dereferenceable(16) %3)
  br i1 %4, label %7, label %5

5:                                                ; preds = %1
  %6 = call noundef ptr @_ZN4llvm25SmallVectorTemplateCommonIZNS_19SelectionDAGBuilder18visitIntrinsicCallERKNS_8CallInstEjE18BranchFunnelTargetvE5beginEv(ptr noundef nonnull align 8 dereferenceable(16) %3)
  call void @free(ptr noundef %6) #2
  br label %7

7:                                                ; preds = %5, %1
  ret void
}

; Function Attrs: mustprogress nounwind uwtable
define internal void @_ZN4llvm23SmallVectorTemplateBaseIZNS_19SelectionDAGBuilder18visitIntrinsicCallERKNS_8CallInstEjE18BranchFunnelTargetLb1EE13destroy_rangeEPS5_S7_(ptr noundef %0, ptr noundef %1) #1 align 2 {
  %3 = alloca ptr, align 8
  %4 = alloca ptr, align 8
  store ptr %0, ptr %3, align 8
  store ptr %1, ptr %4, align 8
  ret void
}

; Function Attrs: mustprogress nounwind uwtable
define internal noundef ptr @_ZN4llvm25SmallVectorTemplateCommonIZNS_19SelectionDAGBuilder18visitIntrinsicCallERKNS_8CallInstEjE18BranchFunnelTargetvE3endEv(ptr noundef nonnull align 8 dereferenceable(16) %0) #1 align 2 {
  %2 = alloca ptr, align 8
  store ptr %0, ptr %2, align 8
  %3 = load ptr, ptr %2, align 8
  %4 = call noundef ptr @_ZN4llvm25SmallVectorTemplateCommonIZNS_19SelectionDAGBuilder18visitIntrinsicCallERKNS_8CallInstEjE18BranchFunnelTargetvE5beginEv(ptr noundef nonnull align 8 dereferenceable(16) %3)
  %5 = call noundef i64 @_ZNK4llvm15SmallVectorBaseIjE4sizeEv(ptr noundef nonnull align 8 dereferenceable(16) %3)
  %6 = getelementptr inbounds %struct.BranchFunnelTarget, ptr %4, i64 %5
  ret ptr %6
}

; Function Attrs: mustprogress nounwind uwtable
define internal noundef ptr @_ZN4llvm25SmallVectorTemplateCommonIZNS_19SelectionDAGBuilder18visitIntrinsicCallERKNS_8CallInstEjE18BranchFunnelTargetvE5beginEv(ptr noundef nonnull align 8 dereferenceable(16) %0) #1 align 2 {
  %2 = alloca ptr, align 8
  store ptr %0, ptr %2, align 8
  %3 = load ptr, ptr %2, align 8
  %4 = getelementptr inbounds nuw %"class.llvm::SmallVectorBase", ptr %3, i32 0, i32 0
  %5 = load ptr, ptr %4, align 8
  ret ptr %5
}

; Function Attrs: mustprogress nounwind uwtable
define internal void @_ZN4llvm11SmallVectorIZNS_19SelectionDAGBuilder18visitIntrinsicCallERKNS_8CallInstEjE18BranchFunnelTargetLj8EED2Ev(ptr noundef nonnull align 8 dereferenceable(208) %0) unnamed_addr #1 align 2 {
  %2 = alloca ptr, align 8
  store ptr %0, ptr %2, align 8
  %3 = load ptr, ptr %2, align 8
  %4 = call noundef ptr @_ZN4llvm25SmallVectorTemplateCommonIZNS_19SelectionDAGBuilder18visitIntrinsicCallERKNS_8CallInstEjE18BranchFunnelTargetvE5beginEv(ptr noundef nonnull align 8 dereferenceable(16) %3)
  %5 = call noundef ptr @_ZN4llvm25SmallVectorTemplateCommonIZNS_19SelectionDAGBuilder18visitIntrinsicCallERKNS_8CallInstEjE18BranchFunnelTargetvE3endEv(ptr noundef nonnull align 8 dereferenceable(16) %3)
  call void @_ZN4llvm23SmallVectorTemplateBaseIZNS_19SelectionDAGBuilder18visitIntrinsicCallERKNS_8CallInstEjE18BranchFunnelTargetLb1EE13destroy_rangeEPS5_S7_(ptr noundef %4, ptr noundef %5)
  call void @_ZN4llvm15SmallVectorImplIZNS_19SelectionDAGBuilder18visitIntrinsicCallERKNS_8CallInstEjE18BranchFunnelTargetED2Ev(ptr noundef nonnull align 8 dereferenceable(16) %3) #2
  ret void
}