; Function Attrs: mustprogress nounwind uwtable
define internal fastcc void @_ZN4llvm11SmallVectorIZNS_19SelectionDAGBuilder18visitIntrinsicCallERKNS_8CallInstEjE18BranchFunnelTargetLj8EED2Ev(ptr noundef nonnull align 8 dereferenceable(208) %0) unnamed_addr #0 align 2 {
  %2 = tail call noundef i64 @_ZNK4llvm15SmallVectorBaseIjE4sizeEv(ptr noundef nonnull align 8 dereferenceable(16) %0) #32
  %3 = load ptr, ptr %0, align 8
  %4 = getelementptr inbounds i8, ptr %0, i64 16
  %5 = icmp eq ptr %3, %4
  br i1 %5, label %_ZN4llvm15SmallVectorImplIZNS_19SelectionDAGBuilder18visitIntrinsicCallERKNS_8CallInstEjE18BranchFunnelTargetED2Ev.exit, label %6

6:                                                ; preds = %1
  tail call void @free(ptr noundef %3) #32
  br label %_ZN4llvm15SmallVectorImplIZNS_19SelectionDAGBuilder18visitIntrinsicCallERKNS_8CallInstEjE18BranchFunnelTargetED2Ev.exit

_ZN4llvm15SmallVectorImplIZNS_19SelectionDAGBuilder18visitIntrinsicCallERKNS_8CallInstEjE18BranchFunnelTargetED2Ev.exit: ; preds = %1, %6
  ret void
}